target datalayout = "e-m:e-p270:32:32-p271:32:32-p272:64:64-i64:64-i128:128-f80:128-n8:16:32:64-S128"
target triple = "x86_64-pc-linux-gnu"

%struct.PROXY_CERT_INFO_EXTENSION_st = type { ptr, ptr }
%struct.PROXY_POLICY_st = type { ptr, ptr }
%struct.conf_value_st = type { ptr, ptr, ptr }

@.str.6 = private unnamed_addr constant [126 x i8] c"generated/home/dtcxzyw/WorkSpace/Projects/compilers/llvm-opt-benchmark/bench/libquic/libquic/boringssl/crypto/x509v3/v3_pci.c\00", align 1
@.str.7 = private unnamed_addr constant [9 x i8] c"section:\00", align 1
@.str.8 = private unnamed_addr constant [7 x i8] c",name:\00", align 1
@.str.9 = private unnamed_addr constant [8 x i8] c",value:\00", align 1

; Function Attrs: nounwind uwtable
define internal ptr @r2i_pci(ptr noundef %0, ptr noundef %1, ptr noundef %2) #0 {
  %4 = alloca ptr, align 8
  %5 = alloca ptr, align 8
  %6 = alloca ptr, align 8
  %7 = alloca ptr, align 8
  %8 = alloca ptr, align 8
  %9 = alloca ptr, align 8
  %10 = alloca ptr, align 8
  %11 = alloca ptr, align 8
  %12 = alloca ptr, align 8
  %13 = alloca i64, align 8
  %14 = alloca i64, align 8
  %15 = alloca i32, align 4
  %16 = alloca ptr, align 8
  %17 = alloca ptr, align 8
  %18 = alloca i32, align 4
  %19 = alloca i32, align 4
  store ptr %0, ptr %5, align 8, !tbaa !6
  store ptr %1, ptr %6, align 8, !tbaa !30
  store ptr %2, ptr %7, align 8, !tbaa !32
  call void @llvm.lifetime.start.p0(i64 8, ptr %8) #7
  store ptr null, ptr %8, align 8, !tbaa !11
  call void @llvm.lifetime.start.p0(i64 8, ptr %9) #7
  call void @llvm.lifetime.start.p0(i64 8, ptr %10) #7
  store ptr null, ptr %10, align 8, !tbaa !33
  call void @llvm.lifetime.start.p0(i64 8, ptr %11) #7
  store ptr null, ptr %11, align 8, !tbaa !34
  call void @llvm.lifetime.start.p0(i64 8, ptr %12) #7
  store ptr null, ptr %12, align 8, !tbaa !34
  call void @llvm.lifetime.start.p0(i64 8, ptr %13) #7
  call void @llvm.lifetime.start.p0(i64 8, ptr %14) #7
  call void @llvm.lifetime.start.p0(i64 4, ptr %15) #7
  %20 = load ptr, ptr %7, align 8, !tbaa !32
  %21 = call ptr @X509V3_parse_list(ptr noundef %20)
  store ptr %21, ptr %9, align 8, !tbaa !35
  store i64 0, ptr %13, align 8, !tbaa !37
  br label %22

22:                                               ; preds = %131, %3
  %23 = load i64, ptr %13, align 8, !tbaa !37
  %24 = load ptr, ptr %9, align 8, !tbaa !35
  %25 = call i64 @sk_num(ptr noundef %24)
  %26 = icmp ult i64 %23, %25
  br i1 %26, label %27, label %134

27:                                               ; preds = %22
  call void @llvm.lifetime.start.p0(i64 8, ptr %16) #7
  %28 = load ptr, ptr %9, align 8, !tbaa !35
  %29 = load i64, ptr %13, align 8, !tbaa !37
  %30 = call ptr @sk_value(ptr noundef %28, i64 noundef %29)
  store ptr %30, ptr %16, align 8, !tbaa !38
  %31 = load ptr, ptr %16, align 8, !tbaa !38
  %32 = getelementptr inbounds nuw %struct.conf_value_st, ptr %31, i32 0, i32 1
  %33 = load ptr, ptr %32, align 8, !tbaa !40
  %34 = icmp ne ptr %33, null
  br i1 %34, label %35, label %47

35:                                               ; preds = %27
  %36 = load ptr, ptr %16, align 8, !tbaa !38
  %37 = getelementptr inbounds nuw %struct.conf_value_st, ptr %36, i32 0, i32 1
  %38 = load ptr, ptr %37, align 8, !tbaa !40
  %39 = load i8, ptr %38, align 1, !tbaa !42
  %40 = sext i8 %39 to i32
  %41 = icmp ne i32 %40, 64
  br i1 %41, label %42, label %57

42:                                               ; preds = %35
  %43 = load ptr, ptr %16, align 8, !tbaa !38
  %44 = getelementptr inbounds nuw %struct.conf_value_st, ptr %43, i32 0, i32 2
  %45 = load ptr, ptr %44, align 8, !tbaa !43
  %46 = icmp ne ptr %45, null
  br i1 %46, label %57, label %47

47:                                               ; preds = %42, %27
  call void @ERR_put_error(i32 noundef 20, i32 noundef 0, i32 noundef 132, ptr noundef @.str.6, i32 noundef 241)
  %48 = load ptr, ptr %16, align 8, !tbaa !38
  %49 = getelementptr inbounds nuw %struct.conf_value_st, ptr %48, i32 0, i32 0
  %50 = load ptr, ptr %49, align 8, !tbaa !44
  %51 = load ptr, ptr %16, align 8, !tbaa !38
  %52 = getelementptr inbounds nuw %struct.conf_value_st, ptr %51, i32 0, i32 1
  %53 = load ptr, ptr %52, align 8, !tbaa !40
  %54 = load ptr, ptr %16, align 8, !tbaa !38
  %55 = getelementptr inbounds nuw %struct.conf_value_st, ptr %54, i32 0, i32 2
  %56 = load ptr, ptr %55, align 8, !tbaa !43
  call void (i32, ...) @ERR_add_error_data(i32 noundef 6, ptr noundef @.str.7, ptr noundef %50, ptr noundef @.str.8, ptr noundef %53, ptr noundef @.str.9, ptr noundef %56)
  store i32 5, ptr %19, align 4
  br label %128

57:                                               ; preds = %42, %35
  %58 = load ptr, ptr %16, align 8, !tbaa !38
  %59 = getelementptr inbounds nuw %struct.conf_value_st, ptr %58, i32 0, i32 1
  %60 = load ptr, ptr %59, align 8, !tbaa !40
  %61 = load i8, ptr %60, align 1, !tbaa !42
  %62 = sext i8 %61 to i32
  %63 = icmp eq i32 %62, 64
  br i1 %63, label %64, label %112

64:                                               ; preds = %57
  call void @llvm.lifetime.start.p0(i64 8, ptr %17) #7
  call void @llvm.lifetime.start.p0(i64 4, ptr %18) #7
  store i32 1, ptr %18, align 4, !tbaa !15
  %65 = load ptr, ptr %6, align 8, !tbaa !30
  %66 = load ptr, ptr %16, align 8, !tbaa !38
  %67 = getelementptr inbounds nuw %struct.conf_value_st, ptr %66, i32 0, i32 1
  %68 = load ptr, ptr %67, align 8, !tbaa !40
  %69 = getelementptr inbounds i8, ptr %68, i64 1
  %70 = call ptr @X509V3_get_section(ptr noundef %65, ptr noundef %69)
  store ptr %70, ptr %17, align 8, !tbaa !35
  %71 = load ptr, ptr %17, align 8, !tbaa !35
  %72 = icmp ne ptr %71, null
  br i1 %72, label %83, label %73

73:                                               ; preds = %64
  call void @ERR_put_error(i32 noundef 20, i32 noundef 0, i32 noundef 134, ptr noundef @.str.6, i32 noundef 251)
  %74 = load ptr, ptr %16, align 8, !tbaa !38
  %75 = getelementptr inbounds nuw %struct.conf_value_st, ptr %74, i32 0, i32 0
  %76 = load ptr, ptr %75, align 8, !tbaa !44
  %77 = load ptr, ptr %16, align 8, !tbaa !38
  %78 = getelementptr inbounds nuw %struct.conf_value_st, ptr %77, i32 0, i32 1
  %79 = load ptr, ptr %78, align 8, !tbaa !40
  %80 = load ptr, ptr %16, align 8, !tbaa !38
  %81 = getelementptr inbounds nuw %struct.conf_value_st, ptr %80, i32 0, i32 2
  %82 = load ptr, ptr %81, align 8, !tbaa !43
  call void (i32, ...) @ERR_add_error_data(i32 noundef 6, ptr noundef @.str.7, ptr noundef %76, ptr noundef @.str.8, ptr noundef %79, ptr noundef @.str.9, ptr noundef %82)
  store i32 5, ptr %19, align 4
  br label %109

83:                                               ; preds = %64
  store i64 0, ptr %14, align 8, !tbaa !37
  br label %84

84:                                               ; preds = %99, %83
  %85 = load i32, ptr %18, align 4, !tbaa !15
  %86 = icmp ne i32 %85, 0
  br i1 %86, label %87, label %92

87:                                               ; preds = %84
  %88 = load i64, ptr %14, align 8, !tbaa !37
  %89 = load ptr, ptr %17, align 8, !tbaa !35
  %90 = call i64 @sk_num(ptr noundef %89)
  %91 = icmp ult i64 %88, %90
  br label %92

92:                                               ; preds = %87, %84
  %93 = phi i1 [ false, %84 ], [ %91, %87 ]
  br i1 %93, label %94, label %102

94:                                               ; preds = %92
  %95 = load ptr, ptr %17, align 8, !tbaa !35
  %96 = load i64, ptr %14, align 8, !tbaa !37
  %97 = call ptr @sk_value(ptr noundef %95, i64 noundef %96)
  %98 = call i32 @process_pci_value(ptr noundef %97, ptr noundef %10, ptr noundef %11, ptr noundef %12)
  store i32 %98, ptr %18, align 4, !tbaa !15
  br label %99

99:                                               ; preds = %94
  %100 = load i64, ptr %14, align 8, !tbaa !37
  %101 = add i64 %100, 1
  store i64 %101, ptr %14, align 8, !tbaa !37
  br label %84, !llvm.loop !45

102:                                              ; preds = %92
  %103 = load ptr, ptr %6, align 8, !tbaa !30
  %104 = load ptr, ptr %17, align 8, !tbaa !35
  call void @X509V3_section_free(ptr noundef %103, ptr noundef %104)
  %105 = load i32, ptr %18, align 4, !tbaa !15
  %106 = icmp ne i32 %105, 0
  br i1 %106, label %108, label %107

107:                                              ; preds = %102
  store i32 5, ptr %19, align 4
  br label %109

108:                                              ; preds = %102
  store i32 0, ptr %19, align 4
  br label %109

109:                                              ; preds = %107, %73, %108
  call void @llvm.lifetime.end.p0(i64 4, ptr %18) #7
  call void @llvm.lifetime.end.p0(i64 8, ptr %17) #7
  %110 = load i32, ptr %19, align 4
  switch i32 %110, label %128 [
    i32 0, label %111
  ]

111:                                              ; preds = %109
  br label %127

112:                                              ; preds = %57
  %113 = load ptr, ptr %16, align 8, !tbaa !38
  %114 = call i32 @process_pci_value(ptr noundef %113, ptr noundef %10, ptr noundef %11, ptr noundef %12)
  %115 = icmp ne i32 %114, 0
  br i1 %115, label %126, label %116

116:                                              ; preds = %112
  %117 = load ptr, ptr %16, align 8, !tbaa !38
  %118 = getelementptr inbounds nuw %struct.conf_value_st, ptr %117, i32 0, i32 0
  %119 = load ptr, ptr %118, align 8, !tbaa !44
  %120 = load ptr, ptr %16, align 8, !tbaa !38
  %121 = getelementptr inbounds nuw %struct.conf_value_st, ptr %120, i32 0, i32 1
  %122 = load ptr, ptr %121, align 8, !tbaa !40
  %123 = load ptr, ptr %16, align 8, !tbaa !38
  %124 = getelementptr inbounds nuw %struct.conf_value_st, ptr %123, i32 0, i32 2
  %125 = load ptr, ptr %124, align 8, !tbaa !43
  call void (i32, ...) @ERR_add_error_data(i32 noundef 6, ptr noundef @.str.7, ptr noundef %119, ptr noundef @.str.8, ptr noundef %122, ptr noundef @.str.9, ptr noundef %125)
  store i32 5, ptr %19, align 4
  br label %128

126:                                              ; preds = %112
  br label %127

127:                                              ; preds = %126, %111
  store i32 0, ptr %19, align 4
  br label %128

128:                                              ; preds = %116, %47, %127, %109
  call void @llvm.lifetime.end.p0(i64 8, ptr %16) #7
  %129 = load i32, ptr %19, align 4
  switch i32 %129, label %193 [
    i32 0, label %130
    i32 5, label %169
  ]

130:                                              ; preds = %128
  br label %131

131:                                              ; preds = %130
  %132 = load i64, ptr %13, align 8, !tbaa !37
  %133 = add i64 %132, 1
  store i64 %133, ptr %13, align 8, !tbaa !37
  br label %22, !llvm.loop !47

134:                                              ; preds = %22
  %135 = load ptr, ptr %10, align 8, !tbaa !33
  %136 = icmp ne ptr %135, null
  br i1 %136, label %138, label %137

137:                                              ; preds = %134
  call void @ERR_put_error(i32 noundef 20, i32 noundef 0, i32 noundef 143, ptr noundef @.str.6, i32 noundef 274)
  br label %169

138:                                              ; preds = %134
  %139 = load ptr, ptr %10, align 8, !tbaa !33
  %140 = call i32 @OBJ_obj2nid(ptr noundef %139)
  store i32 %140, ptr %15, align 4, !tbaa !15
  %141 = load i32, ptr %15, align 4, !tbaa !15
  %142 = icmp eq i32 %141, 667
  br i1 %142, label %146, label %143

143:                                              ; preds = %138
  %144 = load i32, ptr %15, align 4, !tbaa !15
  %145 = icmp eq i32 %144, 665
  br i1 %145, label %146, label %150

146:                                              ; preds = %143, %138
  %147 = load ptr, ptr %12, align 8, !tbaa !34
  %148 = icmp ne ptr %147, null
  br i1 %148, label %149, label %150

149:                                              ; preds = %146
  call void @ERR_put_error(i32 noundef 20, i32 noundef 0, i32 noundef 152, ptr noundef @.str.6, i32 noundef 280)
  br label %169

150:                                              ; preds = %146, %143
  %151 = call ptr @PROXY_CERT_INFO_EXTENSION_new()
  store ptr %151, ptr %8, align 8, !tbaa !11
  %152 = load ptr, ptr %8, align 8, !tbaa !11
  %153 = icmp ne ptr %152, null
  br i1 %153, label %155, label %154

154:                                              ; preds = %150
  call void @ERR_put_error(i32 noundef 20, i32 noundef 0, i32 noundef 65, ptr noundef @.str.6, i32 noundef 286)
  br label %169

155:                                              ; preds = %150
  %156 = load ptr, ptr %10, align 8, !tbaa !33
  %157 = load ptr, ptr %8, align 8, !tbaa !11
  %158 = getelementptr inbounds nuw %struct.PROXY_CERT_INFO_EXTENSION_st, ptr %157, i32 0, i32 1
  %159 = load ptr, ptr %158, align 8, !tbaa !21
  %160 = getelementptr inbounds nuw %struct.PROXY_POLICY_st, ptr %159, i32 0, i32 0
  store ptr %156, ptr %160, align 8, !tbaa !22
  store ptr null, ptr %10, align 8, !tbaa !33
  %161 = load ptr, ptr %12, align 8, !tbaa !34
  %162 = load ptr, ptr %8, align 8, !tbaa !11
  %163 = getelementptr inbounds nuw %struct.PROXY_CERT_INFO_EXTENSION_st, ptr %162, i32 0, i32 1
  %164 = load ptr, ptr %163, align 8, !tbaa !21
  %165 = getelementptr inbounds nuw %struct.PROXY_POLICY_st, ptr %164, i32 0, i32 1
  store ptr %161, ptr %165, align 8, !tbaa !25
  store ptr null, ptr %12, align 8, !tbaa !34
  %166 = load ptr, ptr %11, align 8, !tbaa !34
  %167 = load ptr, ptr %8, align 8, !tbaa !11
  %168 = getelementptr inbounds nuw %struct.PROXY_CERT_INFO_EXTENSION_st, ptr %167, i32 0, i32 0
  store ptr %166, ptr %168, align 8, !tbaa !17
  store ptr null, ptr %11, align 8, !tbaa !34
  br label %190

169:                                              ; preds = %128, %154, %149, %137
  %170 = load ptr, ptr %10, align 8, !tbaa !33
  %171 = icmp ne ptr %170, null
  br i1 %171, label %172, label %174

172:                                              ; preds = %169
  %173 = load ptr, ptr %10, align 8, !tbaa !33
  call void @ASN1_OBJECT_free(ptr noundef %173)
  store ptr null, ptr %10, align 8, !tbaa !33
  br label %174

174:                                              ; preds = %172, %169
  %175 = load ptr, ptr %11, align 8, !tbaa !34
  %176 = icmp ne ptr %175, null
  br i1 %176, label %177, label %179

177:                                              ; preds = %174
  %178 = load ptr, ptr %11, align 8, !tbaa !34
  call void @ASN1_INTEGER_free(ptr noundef %178)
  store ptr null, ptr %11, align 8, !tbaa !34
  br label %179

179:                                              ; preds = %177, %174
  %180 = load ptr, ptr %12, align 8, !tbaa !34
  %181 = icmp ne ptr %180, null
  br i1 %181, label %182, label %184

182:                                              ; preds = %179
  %183 = load ptr, ptr %12, align 8, !tbaa !34
  call void @ASN1_OCTET_STRING_free(ptr noundef %183)
  store ptr null, ptr %12, align 8, !tbaa !34
  br label %184

184:                                              ; preds = %182, %179
  %185 = load ptr, ptr %8, align 8, !tbaa !11
  %186 = icmp ne ptr %185, null
  br i1 %186, label %187, label %189

187:                                              ; preds = %184
  %188 = load ptr, ptr %8, align 8, !tbaa !11
  call void @PROXY_CERT_INFO_EXTENSION_free(ptr noundef %188)
  store ptr null, ptr %8, align 8, !tbaa !11
  br label %189

189:                                              ; preds = %187, %184
  br label %190

190:                                              ; preds = %189, %155
  %191 = load ptr, ptr %9, align 8, !tbaa !35
  call void @sk_pop_free(ptr noundef %191, ptr noundef @X509V3_conf_free)
  %192 = load ptr, ptr %8, align 8, !tbaa !11
  store ptr %192, ptr %4, align 8
  store i32 1, ptr %19, align 4
  br label %193

193:                                              ; preds = %190, %128
  call void @llvm.lifetime.end.p0(i64 4, ptr %15) #7
  call void @llvm.lifetime.end.p0(i64 8, ptr %14) #7
  call void @llvm.lifetime.end.p0(i64 8, ptr %13) #7
  call void @llvm.lifetime.end.p0(i64 8, ptr %12) #7
  call void @llvm.lifetime.end.p0(i64 8, ptr %11) #7
  call void @llvm.lifetime.end.p0(i64 8, ptr %10) #7
  call void @llvm.lifetime.end.p0(i64 8, ptr %9) #7
  call void @llvm.lifetime.end.p0(i64 8, ptr %8) #7
  %194 = load ptr, ptr %4, align 8
  ret ptr %194
}